; Function Attrs: mustprogress nofree norecurse nosync nounwind willreturn memory(argmem: read) uwtable
define noundef i64 @_ZNK5boost4urls6detail8url_impl6offsetEi(ptr nocapture noundef nonnull readonly align 8 dereferenceable(171) %0, i32 noundef %1) local_unnamed_addr #4 align 2 {
  %3 = icmp eq i32 %1, -1
  br i1 %3, label %9, label %4

4:                                                ; preds = %2
  %5 = getelementptr inbounds nuw i8, ptr %0, i64 8
  %6 = sext i32 %1 to i64
  %7 = getelementptr inbounds [8 x i64], ptr %5, i64 0, i64 %6
  %8 = load i64, ptr %7, align 8, !tbaa !13
  br label %9

9:                                                ; preds = %2, %4
  %10 = phi i64 [ %8, %4 ], [ 0, %2 ]
  ret i64 %10
}